; Function Attrs: mustprogress nounwind uwtable
define hidden noundef zeroext i1 @_ZN5clang6driver10toolchains14RISCVToolChain15hasGCCToolchainERKNS0_6DriverERKN4llvm3opt7ArgListE(ptr noundef nonnull align 8 dereferenceable(1192) %0, ptr noundef nonnull align 8 dereferenceable(176) %1) local_unnamed_addr #0 align 2 {
  %3 = alloca %"class.llvm::SmallString", align 8
  %4 = alloca %"class.llvm::Twine", align 8
  %5 = alloca %"class.llvm::Twine", align 8
  %6 = alloca %"class.llvm::Twine", align 8
  %7 = alloca %"class.std::__cxx11::basic_string", align 8
  %8 = alloca %"class.llvm::Twine", align 8
  %9 = alloca %"class.llvm::Twine", align 8
  %10 = tail call noundef ptr @_ZNK4llvm3opt7ArgList10getLastArgIJN5clang6driver7options2IDEEEEPNS0_3ArgEDpT_(ptr noundef nonnull align 8 dereferenceable(176) %1, i32 noundef 1907)
  %.not = icmp eq ptr %10, null
  br i1 %.not, label %11, label %_ZN4llvm11SmallStringILj128EED2Ev.exit

11:                                               ; preds = %2
  %12 = getelementptr inbounds i8, ptr %3, i64 24
  call void @_ZN4llvm15SmallVectorBaseImEC2EPvm(ptr noundef nonnull align 8 dereferenceable(24) %3, ptr noundef nonnull %12, i64 noundef 128) #13
  %13 = getelementptr inbounds nuw i8, ptr %0, i64 80
  %14 = getelementptr inbounds nuw i8, ptr %4, i64 32
  store i8 4, ptr %14, align 8
  %15 = getelementptr inbounds nuw i8, ptr %4, i64 33
  store i8 1, ptr %15, align 1
  store ptr %13, ptr %4, align 8
  %16 = getelementptr inbounds nuw i8, ptr %5, i64 32
  %17 = getelementptr inbounds nuw i8, ptr %5, i64 33
  store i8 1, ptr %17, align 1
  store ptr @.str, ptr %5, align 8
  store i8 3, ptr %16, align 8
  %18 = getelementptr inbounds nuw i8, ptr %0, i64 920
  call void @_ZNSt7__cxx1112basic_stringIcSt11char_traitsIcESaIcEEC1ERKS4_(ptr noundef nonnull align 8 dereferenceable(32) %7, ptr noundef nonnull align 8 dereferenceable(32) %18) #13
  %19 = getelementptr inbounds nuw i8, ptr %6, i64 32
  store i8 4, ptr %19, align 8
  %20 = getelementptr inbounds nuw i8, ptr %6, i64 33
  store i8 1, ptr %20, align 1
  store ptr %7, ptr %6, align 8
  %21 = getelementptr inbounds nuw i8, ptr %8, i64 32
  %22 = getelementptr inbounds nuw i8, ptr %8, i64 33
  store i8 1, ptr %22, align 1
  store ptr @.str.1, ptr %8, align 8
  store i8 3, ptr %21, align 8
  call void @_ZN4llvm3sys4path6appendERNS_15SmallVectorImplIcEERKNS_5TwineES7_S7_S7_(ptr noundef nonnull align 8 dereferenceable(24) %3, ptr noundef nonnull align 8 dereferenceable(34) %4, ptr noundef nonnull align 8 dereferenceable(34) %5, ptr noundef nonnull align 8 dereferenceable(34) %6, ptr noundef nonnull align 8 dereferenceable(34) %8) #13
  call void @_ZNSt7__cxx1112basic_stringIcSt11char_traitsIcESaIcEED1Ev(ptr noundef nonnull align 8 dereferenceable(32) %7) #13
  %23 = getelementptr inbounds nuw i8, ptr %9, i64 32
  store i8 5, ptr %23, align 8
  %24 = getelementptr inbounds nuw i8, ptr %9, i64 33
  store i8 1, ptr %24, align 1
  %25 = load ptr, ptr %3, align 8
  store ptr %25, ptr %9, align 8
  %26 = call noundef i64 @_ZNK4llvm15SmallVectorBaseImE4sizeEv(ptr noundef nonnull align 8 dereferenceable(24) %3) #13
  %27 = getelementptr inbounds nuw i8, ptr %9, i64 8
  store i64 %26, ptr %27, align 8
  %28 = call { i32, ptr } @_ZN4llvm3sys2fs6accessERKNS_5TwineENS1_10AccessModeE(ptr noundef nonnull align 8 dereferenceable(34) %9, i32 noundef 0) #13
  %29 = extractvalue { i32, ptr } %28, 0
  %.not.i = icmp eq i32 %29, 0
  %30 = call noundef i64 @_ZNK4llvm15SmallVectorBaseImE4sizeEv(ptr noundef nonnull align 8 dereferenceable(24) %3) #13
  %31 = load ptr, ptr %3, align 8
  %32 = icmp eq ptr %31, %12
  br i1 %32, label %_ZN4llvm11SmallStringILj128EED2Ev.exit, label %33

33:                                               ; preds = %11
  call void @free(ptr noundef %31) #13
  br label %_ZN4llvm11SmallStringILj128EED2Ev.exit

_ZN4llvm11SmallStringILj128EED2Ev.exit:           ; preds = %33, %11, %2
  %.0 = phi i1 [ true, %2 ], [ %.not.i, %11 ], [ %.not.i, %33 ]
  ret i1 %.0
}